target datalayout = "e-m:e-p270:32:32-p271:32:32-p272:64:64-i64:64-i128:128-f80:128-n8:16:32:64-S128"
target triple = "x86_64-pc-linux-gnu"

@REPEAT_TESTS = global i32 1, align 4
@VERBOSITY = global i32 0, align 4
@ERR_MSG = global i32 1, align 4
@QUICK = global i32 1, align 4
@WARN_ON_MISSING_DATA = global i32 0, align 4
@ICU_TRACE = global i32 -1, align 4
@WRITE_GOLDEN_DATA = global i32 0, align 4

; Function Attrs: nounwind uwtable
define i32 @getTestOption(i32 noundef %0) #0 {
  %2 = alloca i32, align 4
  %3 = alloca i32, align 4
  store i32 %0, ptr %3, align 4, !tbaa !18
  %4 = load i32, ptr %3, align 4, !tbaa !18
  switch i32 %4, label %19 [
    i32 2, label %5
    i32 5, label %7
    i32 4, label %9
    i32 1, label %11
    i32 3, label %13
    i32 6, label %15
    i32 7, label %17
  ]

5:                                                ; preds = %1
  %6 = load i32, ptr @VERBOSITY, align 4, !tbaa !18
  store i32 %6, ptr %2, align 4
  br label %20

7:                                                ; preds = %1
  %8 = load i32, ptr @WARN_ON_MISSING_DATA, align 4, !tbaa !18
  store i32 %8, ptr %2, align 4
  br label %20

9:                                                ; preds = %1
  %10 = load i32, ptr @QUICK, align 4, !tbaa !18
  store i32 %10, ptr %2, align 4
  br label %20

11:                                               ; preds = %1
  %12 = load i32, ptr @REPEAT_TESTS, align 4, !tbaa !18
  store i32 %12, ptr %2, align 4
  br label %20

13:                                               ; preds = %1
  %14 = load i32, ptr @ERR_MSG, align 4, !tbaa !18
  store i32 %14, ptr %2, align 4
  br label %20

15:                                               ; preds = %1
  %16 = load i32, ptr @ICU_TRACE, align 4, !tbaa !18
  store i32 %16, ptr %2, align 4
  br label %20

17:                                               ; preds = %1
  %18 = load i32, ptr @WRITE_GOLDEN_DATA, align 4, !tbaa !18
  store i32 %18, ptr %2, align 4
  br label %20

19:                                               ; preds = %1
  store i32 0, ptr %2, align 4
  br label %20

20:                                               ; preds = %19, %17, %15, %13, %11, %9, %7, %5
  %21 = load i32, ptr %2, align 4
  ret i32 %21
}

; Function Attrs: nounwind uwtable
define void @setTestOption(i32 noundef %0, i32 noundef %1) #0 {
  %3 = alloca i32, align 4
  %4 = alloca i32, align 4
  store i32 %0, ptr %3, align 4, !tbaa !18
  store i32 %1, ptr %4, align 4, !tbaa !18
  %5 = load i32, ptr %4, align 4, !tbaa !18
  %6 = icmp eq i32 %5, -99
  br i1 %6, label %7, label %12

7:                                                ; preds = %2
  %8 = load i32, ptr %3, align 4, !tbaa !18
  %9 = call i32 @getTestOption(i32 noundef %8)
  store i32 %9, ptr %4, align 4, !tbaa !18
  %10 = load i32, ptr %4, align 4, !tbaa !18
  %11 = add nsw i32 %10, -1
  store i32 %11, ptr %4, align 4, !tbaa !18
  br label %12

12:                                               ; preds = %7, %2
  %13 = load i32, ptr %3, align 4, !tbaa !18
  switch i32 %13, label %26 [
    i32 2, label %14
    i32 5, label %16
    i32 4, label %18
    i32 1, label %20
    i32 6, label %22
    i32 7, label %24
  ]

14:                                               ; preds = %12
  %15 = load i32, ptr %4, align 4, !tbaa !18
  store i32 %15, ptr @VERBOSITY, align 4, !tbaa !18
  br label %27

16:                                               ; preds = %12
  %17 = load i32, ptr %4, align 4, !tbaa !18
  store i32 %17, ptr @WARN_ON_MISSING_DATA, align 4, !tbaa !18
  br label %27

18:                                               ; preds = %12
  %19 = load i32, ptr %4, align 4, !tbaa !18
  store i32 %19, ptr @QUICK, align 4, !tbaa !18
  br label %27

20:                                               ; preds = %12
  %21 = load i32, ptr %4, align 4, !tbaa !18
  store i32 %21, ptr @REPEAT_TESTS, align 4, !tbaa !18
  br label %27

22:                                               ; preds = %12
  %23 = load i32, ptr %4, align 4, !tbaa !18
  store i32 %23, ptr @ICU_TRACE, align 4, !tbaa !18
  br label %27

24:                                               ; preds = %12
  %25 = load i32, ptr %4, align 4, !tbaa !18
  store i32 %25, ptr @WRITE_GOLDEN_DATA, align 4, !tbaa !18
  br label %26

26:                                               ; preds = %12, %24
  br label %27

27:                                               ; preds = %26, %22, %20, %18, %16, %14
  ret void
}