; Function Attrs: mustprogress nofree norecurse nosync nounwind willreturn memory(readwrite, argmem: write, inaccessiblemem: none) uwtable
define void @setTestOption(i32 noundef %0, i32 noundef %1) local_unnamed_addr #15 {
  %3 = icmp eq i32 %1, -99
  br i1 %3, label %4, label %20

4:                                                ; preds = %2
  switch i32 %0, label %getTestOption.exit [
    i32 2, label %5
    i32 5, label %7
    i32 4, label %9
    i32 1, label %11
    i32 3, label %13
    i32 6, label %15
    i32 7, label %17
  ]

5:                                                ; preds = %4
  %6 = load i32, ptr @VERBOSITY, align 4, !tbaa !18
  br label %getTestOption.exit

7:                                                ; preds = %4
  %8 = load i32, ptr @WARN_ON_MISSING_DATA, align 4, !tbaa !18
  br label %getTestOption.exit

9:                                                ; preds = %4
  %10 = load i32, ptr @QUICK, align 4, !tbaa !18
  br label %getTestOption.exit

11:                                               ; preds = %4
  %12 = load i32, ptr @REPEAT_TESTS, align 4, !tbaa !18
  br label %getTestOption.exit

13:                                               ; preds = %4
  %14 = load i32, ptr @ERR_MSG, align 4, !tbaa !18
  br label %getTestOption.exit

15:                                               ; preds = %4
  %16 = load i32, ptr @ICU_TRACE, align 4, !tbaa !18
  br label %getTestOption.exit

17:                                               ; preds = %4
  %18 = load i32, ptr @WRITE_GOLDEN_DATA, align 4, !tbaa !18
  br label %getTestOption.exit

getTestOption.exit:                               ; preds = %4, %5, %7, %9, %11, %13, %15, %17
  %.0.i = phi i32 [ %18, %17 ], [ %16, %15 ], [ %14, %13 ], [ %12, %11 ], [ %10, %9 ], [ %8, %7 ], [ %6, %5 ], [ 0, %4 ]
  %19 = add nsw i32 %.0.i, -1
  br label %20

20:                                               ; preds = %getTestOption.exit, %2
  %.0 = phi i32 [ %19, %getTestOption.exit ], [ %1, %2 ]
  %switch.tableidx = add i32 %0, -1
  %21 = icmp ult i32 %switch.tableidx, 7
  br i1 %21, label %switch.hole_check, label %23

switch.hole_check:                                ; preds = %20
  %switch.maskindex = trunc nuw i32 %switch.tableidx to i8
  %switch.shifted = lshr i8 123, %switch.maskindex
  %switch.lobit = trunc i8 %switch.shifted to i1
  br i1 %switch.lobit, label %switch.lookup, label %23

switch.lookup:                                    ; preds = %switch.hole_check
  %22 = zext nneg i32 %switch.tableidx to i64
  %switch.gep = getelementptr inbounds nuw [7 x ptr], ptr @switch.table.setTestOption, i64 0, i64 %22
  %switch.load = load ptr, ptr %switch.gep, align 8
  store i32 %.0, ptr %switch.load, align 4, !tbaa !18
  br label %23

23:                                               ; preds = %switch.hole_check, %20, %switch.lookup
  ret void
}